; Function Attrs: nofree nosync nounwind memory(argmem: readwrite) uwtable
define void @stbtt__sort_edges(ptr noundef %0, i32 noundef %1) local_unnamed_addr #23 {
  %.sroa.5.i = alloca { float, float, i32 }, align 8
  tail call void @stbtt__sort_edges_quicksort(ptr noundef %0, i32 noundef %1)
  %3 = icmp sgt i32 %1, 1
  br i1 %3, label %.lr.ph.preheader.i, label %stbtt__sort_edges_ins_sort.exit

.lr.ph.preheader.i:                               ; preds = %2
  %wide.trip.count.i = zext nneg i32 %1 to i64
  br label %.lr.ph.i

.lr.ph.i:                                         ; preds = %18, %.lr.ph.preheader.i
  %indvars.iv.i = phi i64 [ 1, %.lr.ph.preheader.i ], [ %indvars.iv.next.i, %18 ]
  call void @llvm.lifetime.start.p0(i64 12, ptr nonnull %.sroa.5.i)
  %4 = getelementptr inbounds nuw %struct.stbtt__edge, ptr %0, i64 %indvars.iv.i
  %.sroa.0.0.copyload.i = load float, ptr %4, align 4, !tbaa !71
  %.sroa.4.0..sroa_idx.i = getelementptr inbounds nuw i8, ptr %4, i64 4
  %.sroa.4.0.copyload.i = load float, ptr %.sroa.4.0..sroa_idx.i, align 4, !tbaa !71
  %.sroa.5.0..sroa_idx.i = getelementptr inbounds nuw i8, ptr %4, i64 8
  call void @llvm.memcpy.p0.p0.i64(ptr noundef nonnull align 8 dereferenceable(12) %.sroa.5.i, ptr noundef nonnull align 4 dereferenceable(12) %.sroa.5.0..sroa_idx.i, i64 12, i1 false), !tbaa.struct !129
  br label %5

5:                                                ; preds = %10, %.lr.ph.i
  %indvars.iv32.i = phi i64 [ %indvars.iv.i, %.lr.ph.i ], [ %indvars.iv.next33.i, %10 ]
  %6 = getelementptr %struct.stbtt__edge, ptr %0, i64 %indvars.iv32.i
  %7 = getelementptr i8, ptr %6, i64 -16
  %8 = load float, ptr %7, align 4, !tbaa !104
  %9 = fcmp olt float %.sroa.4.0.copyload.i, %8
  br i1 %9, label %10, label %.thread.split.loop.exit.i

10:                                               ; preds = %5
  %11 = getelementptr i8, ptr %6, i64 -20
  tail call void @llvm.memcpy.p0.p0.i64(ptr noundef nonnull align 4 dereferenceable(20) %6, ptr noundef nonnull align 4 dereferenceable(20) %11, i64 20, i1 false), !tbaa.struct !130
  %indvars.iv.next33.i = add nsw i64 %indvars.iv32.i, -1
  %12 = icmp sgt i64 %indvars.iv32.i, 1
  br i1 %12, label %5, label %.thread.i

.thread.split.loop.exit.i:                        ; preds = %5
  %13 = trunc nuw nsw i64 %indvars.iv32.i to i32
  br label %.thread.i

.thread.i:                                        ; preds = %10, %.thread.split.loop.exit.i
  %.022.lcssa.i = phi i32 [ %13, %.thread.split.loop.exit.i ], [ 0, %10 ]
  %14 = zext i32 %.022.lcssa.i to i64
  %.not.i = icmp eq i64 %indvars.iv.i, %14
  br i1 %.not.i, label %18, label %15

15:                                               ; preds = %.thread.i
  %16 = sext i32 %.022.lcssa.i to i64
  %17 = getelementptr inbounds %struct.stbtt__edge, ptr %0, i64 %16
  store float %.sroa.0.0.copyload.i, ptr %17, align 4, !tbaa !71
  %.sroa.4.0..sroa_idx24.i = getelementptr inbounds nuw i8, ptr %17, i64 4
  store float %.sroa.4.0.copyload.i, ptr %.sroa.4.0..sroa_idx24.i, align 4, !tbaa !71
  %.sroa.5.0..sroa_idx26.i = getelementptr inbounds nuw i8, ptr %17, i64 8
  call void @llvm.memcpy.p0.p0.i64(ptr noundef nonnull align 4 dereferenceable(12) %.sroa.5.0..sroa_idx26.i, ptr noundef nonnull align 8 dereferenceable(12) %.sroa.5.i, i64 12, i1 false), !tbaa.struct !129
  br label %18

18:                                               ; preds = %15, %.thread.i
  call void @llvm.lifetime.end.p0(i64 12, ptr nonnull %.sroa.5.i)
  %indvars.iv.next.i = add nuw nsw i64 %indvars.iv.i, 1
  %exitcond.not.i = icmp eq i64 %indvars.iv.next.i, %wide.trip.count.i
  br i1 %exitcond.not.i, label %stbtt__sort_edges_ins_sort.exit, label %.lr.ph.i, !llvm.loop !131

stbtt__sort_edges_ins_sort.exit:                  ; preds = %18, %2
  ret void
}